target datalayout = "e-m:e-p270:32:32-p271:32:32-p272:64:64-i64:64-i128:128-f80:128-n8:16:32:64-S128"
target triple = "x86_64-pc-linux-gnu"

%struct.PageHeaderData = type { %struct.PageXLogRecPtr, i16, i16, i16, i16, i16, i16, i32, [0 x %struct.ItemIdData] }
%struct.PageXLogRecPtr = type { i32, i32 }
%struct.ItemIdData = type { i32 }
%struct.IndexTupleData = type { %struct.ItemPointerData, i16 }
%struct.ItemPointerData = type { %struct.BlockIdData, i16 }
%struct.BlockIdData = type { i16, i16 }
%struct.xl_btree_update = type { i16 }
%struct.BTVacuumPostingData = type { ptr, i16, i16, [0 x i16] }

@.str.1 = private unnamed_addr constant [10 x i8] c"nbtxlog.c\00", align 1
@.str.12 = private unnamed_addr constant [37 x i8] c"failed to update partially dead item\00", align 1
@__func__.btree_xlog_updates = private unnamed_addr constant [19 x i8] c"btree_xlog_updates\00", align 1

; Function Attrs: inlinehint nounwind uwtable
define internal i64 @IndexTupleSize(ptr noundef %0) #2 {
  %2 = alloca ptr, align 8
  store ptr %0, ptr %2, align 8
  %3 = load ptr, ptr %2, align 8
  %4 = getelementptr inbounds nuw %struct.IndexTupleData, ptr %3, i32 0, i32 1
  %5 = load i16, ptr %4, align 2
  %6 = zext i16 %5 to i32
  %7 = and i32 %6, 8191
  %8 = sext i32 %7 to i64
  ret i64 %8
}

; Function Attrs: inlinehint nounwind uwtable
define internal ptr @PageGetItem(ptr noundef %0, ptr noundef %1) #2 {
  %3 = alloca ptr, align 8
  %4 = alloca ptr, align 8
  store ptr %0, ptr %3, align 8
  store ptr %1, ptr %4, align 8
  %5 = load ptr, ptr %3, align 8
  %6 = load ptr, ptr %4, align 8
  %7 = load i32, ptr %6, align 4
  %8 = and i32 %7, 32767
  %9 = sext i32 %8 to i64
  %10 = getelementptr inbounds i8, ptr %5, i64 %9
  ret ptr %10
}

; Function Attrs: inlinehint nounwind uwtable
define internal ptr @PageGetItemId(ptr noundef %0, i16 noundef zeroext %1) #2 {
  %3 = alloca ptr, align 8
  %4 = alloca i16, align 2
  store ptr %0, ptr %3, align 8
  store i16 %1, ptr %4, align 2
  %5 = load ptr, ptr %3, align 8
  %6 = getelementptr inbounds nuw %struct.PageHeaderData, ptr %5, i32 0, i32 8
  %7 = load i16, ptr %4, align 2
  %8 = zext i16 %7 to i32
  %9 = sub i32 %8, 1
  %10 = sext i32 %9 to i64
  %11 = getelementptr inbounds [0 x %struct.ItemIdData], ptr %6, i64 0, i64 %10
  ret ptr %11
}

; Function Attrs: nounwind uwtable
define internal void @btree_xlog_updates(ptr noundef %0, ptr noundef %1, ptr noundef %2, i32 noundef %3) #0 {
  %5 = alloca ptr, align 8
  %6 = alloca ptr, align 8
  %7 = alloca ptr, align 8
  %8 = alloca i32, align 4
  %9 = alloca ptr, align 8
  %10 = alloca ptr, align 8
  %11 = alloca ptr, align 8
  %12 = alloca i64, align 8
  %13 = alloca i32, align 4
  store ptr %0, ptr %5, align 8
  store ptr %1, ptr %6, align 8
  store ptr %2, ptr %7, align 8
  store i32 %3, ptr %8, align 4
  call void @llvm.lifetime.start.p0(i64 8, ptr %9) #7
  call void @llvm.lifetime.start.p0(i64 8, ptr %10) #7
  call void @llvm.lifetime.start.p0(i64 8, ptr %11) #7
  call void @llvm.lifetime.start.p0(i64 8, ptr %12) #7
  call void @llvm.lifetime.start.p0(i64 4, ptr %13) #7
  store i32 0, ptr %13, align 4
  br label %14

14:                                               ; preds = %104, %4
  %15 = load i32, ptr %13, align 4
  %16 = load i32, ptr %8, align 4
  %17 = icmp slt i32 %15, %16
  br i1 %17, label %19, label %18

18:                                               ; preds = %14
  call void @llvm.lifetime.end.p0(i64 4, ptr %13) #7
  br label %107

19:                                               ; preds = %14
  %20 = load ptr, ptr %5, align 8
  %21 = load ptr, ptr %6, align 8
  %22 = load i32, ptr %13, align 4
  %23 = sext i32 %22 to i64
  %24 = getelementptr inbounds i16, ptr %21, i64 %23
  %25 = load i16, ptr %24, align 2
  %26 = call ptr @PageGetItemId(ptr noundef %20, i16 noundef zeroext %25)
  store ptr %26, ptr %11, align 8
  %27 = load ptr, ptr %5, align 8
  %28 = load ptr, ptr %11, align 8
  %29 = call ptr @PageGetItem(ptr noundef %27, ptr noundef %28)
  store ptr %29, ptr %10, align 8
  %30 = load ptr, ptr %7, align 8
  %31 = getelementptr inbounds nuw %struct.xl_btree_update, ptr %30, i32 0, i32 0
  %32 = load i16, ptr %31, align 2
  %33 = zext i16 %32 to i64
  %34 = mul i64 %33, 2
  %35 = add i64 12, %34
  %36 = call ptr @palloc(i64 noundef %35)
  store ptr %36, ptr %9, align 8
  %37 = load ptr, ptr %6, align 8
  %38 = load i32, ptr %13, align 4
  %39 = sext i32 %38 to i64
  %40 = getelementptr inbounds i16, ptr %37, i64 %39
  %41 = load i16, ptr %40, align 2
  %42 = load ptr, ptr %9, align 8
  %43 = getelementptr inbounds nuw %struct.BTVacuumPostingData, ptr %42, i32 0, i32 1
  store i16 %41, ptr %43, align 8
  %44 = load ptr, ptr %10, align 8
  %45 = load ptr, ptr %9, align 8
  %46 = getelementptr inbounds nuw %struct.BTVacuumPostingData, ptr %45, i32 0, i32 0
  store ptr %44, ptr %46, align 8
  %47 = load ptr, ptr %7, align 8
  %48 = getelementptr inbounds nuw %struct.xl_btree_update, ptr %47, i32 0, i32 0
  %49 = load i16, ptr %48, align 2
  %50 = load ptr, ptr %9, align 8
  %51 = getelementptr inbounds nuw %struct.BTVacuumPostingData, ptr %50, i32 0, i32 2
  store i16 %49, ptr %51, align 2
  %52 = load ptr, ptr %9, align 8
  %53 = getelementptr inbounds nuw %struct.BTVacuumPostingData, ptr %52, i32 0, i32 3
  %54 = getelementptr inbounds [0 x i16], ptr %53, i64 0, i64 0
  %55 = load ptr, ptr %7, align 8
  %56 = getelementptr inbounds nuw i8, ptr %55, i64 2
  %57 = load ptr, ptr %7, align 8
  %58 = getelementptr inbounds nuw %struct.xl_btree_update, ptr %57, i32 0, i32 0
  %59 = load i16, ptr %58, align 2
  %60 = zext i16 %59 to i64
  %61 = mul i64 %60, 2
  call void @llvm.memcpy.p0.p0.i64(ptr align 4 %54, ptr align 1 %56, i64 %61, i1 false)
  %62 = load ptr, ptr %9, align 8
  call void @_bt_update_posting(ptr noundef %62)
  %63 = load ptr, ptr %9, align 8
  %64 = getelementptr inbounds nuw %struct.BTVacuumPostingData, ptr %63, i32 0, i32 0
  %65 = load ptr, ptr %64, align 8
  %66 = call i64 @IndexTupleSize(ptr noundef %65)
  %67 = add i64 %66, 7
  %68 = and i64 %67, -8
  store i64 %68, ptr %12, align 8
  %69 = load ptr, ptr %5, align 8
  %70 = load ptr, ptr %6, align 8
  %71 = load i32, ptr %13, align 4
  %72 = sext i32 %71 to i64
  %73 = getelementptr inbounds i16, ptr %70, i64 %72
  %74 = load i16, ptr %73, align 2
  %75 = load ptr, ptr %9, align 8
  %76 = getelementptr inbounds nuw %struct.BTVacuumPostingData, ptr %75, i32 0, i32 0
  %77 = load ptr, ptr %76, align 8
  %78 = load i64, ptr %12, align 8
  %79 = call zeroext i1 @PageIndexTupleOverwrite(ptr noundef %69, i16 noundef zeroext %74, ptr noundef %77, i64 noundef %78)
  br i1 %79, label %91, label %80

80:                                               ; preds = %19
  br label %81

81:                                               ; preds = %80
  br i1 true, label %82, label %84

82:                                               ; preds = %81
  %83 = call zeroext i1 @errstart_cold(i32 noundef 23, ptr noundef null) #8
  br i1 %83, label %86, label %88

84:                                               ; preds = %81
  %85 = call zeroext i1 @errstart(i32 noundef 23, ptr noundef null)
  br i1 %85, label %86, label %88

86:                                               ; preds = %84, %82
  %87 = call i32 (ptr, ...) @errmsg_internal(ptr noundef @.str.12)
  call void @errfinish(ptr noundef @.str.1, i32 noundef 585, ptr noundef @__func__.btree_xlog_updates)
  br label %88

88:                                               ; preds = %86, %84, %82
  unreachable

89:                                               ; No predecessors!
  br label %90

90:                                               ; preds = %89
  br label %91

91:                                               ; preds = %90, %19
  %92 = load ptr, ptr %9, align 8
  %93 = getelementptr inbounds nuw %struct.BTVacuumPostingData, ptr %92, i32 0, i32 0
  %94 = load ptr, ptr %93, align 8
  call void @pfree(ptr noundef %94)
  %95 = load ptr, ptr %9, align 8
  call void @pfree(ptr noundef %95)
  %96 = load ptr, ptr %7, align 8
  %97 = getelementptr inbounds nuw i8, ptr %96, i64 2
  %98 = load ptr, ptr %7, align 8
  %99 = getelementptr inbounds nuw %struct.xl_btree_update, ptr %98, i32 0, i32 0
  %100 = load i16, ptr %99, align 2
  %101 = zext i16 %100 to i64
  %102 = mul i64 %101, 2
  %103 = getelementptr inbounds nuw i8, ptr %97, i64 %102
  store ptr %103, ptr %7, align 8
  br label %104

104:                                              ; preds = %91
  %105 = load i32, ptr %13, align 4
  %106 = add i32 %105, 1
  store i32 %106, ptr %13, align 4
  br label %14, !llvm.loop !13

107:                                              ; preds = %18
  call void @llvm.lifetime.end.p0(i64 8, ptr %12) #7
  call void @llvm.lifetime.end.p0(i64 8, ptr %11) #7
  call void @llvm.lifetime.end.p0(i64 8, ptr %10) #7
  call void @llvm.lifetime.end.p0(i64 8, ptr %9) #7
  ret void
}