; Function Attrs: nounwind uwtable
define internal fastcc void @btree_xlog_updates(ptr noundef %0, ptr noundef readonly captures(none) %1, ptr noundef readonly captures(none) %2, i32 noundef range(i32 1, 65536) %3) unnamed_addr #0 {
  %5 = getelementptr inbounds nuw i8, ptr %0, i64 24
  %wide.trip.count = zext nneg i32 %3 to i64
  br label %7

6:                                                ; preds = %39
  ret void

7:                                                ; preds = %4, %39
  %indvars.iv = phi i64 [ 0, %4 ], [ %indvars.iv.next, %39 ]
  %.02931 = phi ptr [ %2, %4 ], [ %44, %39 ]
  %8 = getelementptr inbounds nuw i16, ptr %1, i64 %indvars.iv
  %9 = load i16, ptr %8, align 2
  %10 = zext i16 %9 to i64
  %11 = add nsw i64 %10, -1
  %12 = getelementptr inbounds [0 x %struct.ItemIdData], ptr %5, i64 0, i64 %11
  %.val = load i32, ptr %12, align 4
  %13 = and i32 %.val, 32767
  %14 = zext nneg i32 %13 to i64
  %15 = getelementptr inbounds nuw i8, ptr %0, i64 %14
  %16 = load i16, ptr %.02931, align 2
  %17 = zext i16 %16 to i64
  %18 = shl nuw nsw i64 %17, 1
  %19 = add nuw nsw i64 %18, 12
  %20 = tail call ptr @palloc(i64 noundef %19) #7
  %21 = load i16, ptr %8, align 2
  %22 = getelementptr inbounds nuw i8, ptr %20, i64 8
  store i16 %21, ptr %22, align 8
  store ptr %15, ptr %20, align 8
  %23 = load i16, ptr %.02931, align 2
  %24 = getelementptr inbounds nuw i8, ptr %20, i64 10
  store i16 %23, ptr %24, align 2
  %25 = getelementptr inbounds nuw i8, ptr %20, i64 12
  %26 = getelementptr inbounds nuw i8, ptr %.02931, i64 2
  %27 = zext i16 %23 to i64
  %28 = shl nuw nsw i64 %27, 1
  tail call void @llvm.memcpy.p0.p0.i64(ptr nonnull align 4 %25, ptr nonnull align 1 %26, i64 %28, i1 false)
  tail call void @_bt_update_posting(ptr noundef nonnull %20) #7
  %29 = load ptr, ptr %20, align 8
  %30 = getelementptr i8, ptr %29, i64 6
  %.val30 = load i16, ptr %30, align 2
  %31 = and i16 %.val30, 8191
  %narrow = add nuw nsw i16 %31, 7
  %32 = and i16 %narrow, 16376
  %33 = zext nneg i16 %32 to i64
  %34 = load i16, ptr %8, align 2
  %35 = tail call zeroext i1 @PageIndexTupleOverwrite(ptr noundef %0, i16 noundef zeroext %34, ptr noundef %29, i64 noundef %33) #7
  br i1 %35, label %39, label %36

36:                                               ; preds = %7
  %37 = tail call zeroext i1 @errstart_cold(i32 noundef 23, ptr noundef null) #8
  tail call void @llvm.assume(i1 %37)
  %38 = tail call i32 (ptr, ...) @errmsg_internal(ptr noundef nonnull @.str.12) #7
  tail call void @errfinish(ptr noundef nonnull @.str.1, i32 noundef 585, ptr noundef nonnull @__func__.btree_xlog_updates) #7
  unreachable

39:                                               ; preds = %7
  %40 = load ptr, ptr %20, align 8
  tail call void @pfree(ptr noundef %40) #7
  tail call void @pfree(ptr noundef nonnull %20) #7
  %41 = load i16, ptr %.02931, align 2
  %42 = zext i16 %41 to i64
  %43 = shl nuw nsw i64 %42, 1
  %44 = getelementptr inbounds nuw i8, ptr %26, i64 %43
  %indvars.iv.next = add nuw nsw i64 %indvars.iv, 1
  %exitcond.not = icmp eq i64 %indvars.iv.next, %wide.trip.count
  br i1 %exitcond.not, label %6, label %7, !llvm.loop !11
}